Certificate:
    Data:
        Version: 3 (0x2)
        Serial Number: 1 (0x1)
    Signature Algorithm: sha256WithRSAEncryption
        Issuer: CN=devcert
        Validity
            Not Before: May  4 15:27:17 2020 GMT
            Not After : Aug  7 15:27:17 2022 GMT
        Subject: CN=localhost
        Subject Public Key Info:
            Public Key Algorithm: rsaEncryption
                Public-Key: (2048 bit)
                Modulus:
                    00:9b:04:85:00:a4:ba:86:79:e9:55:86:19:cc:14:
                    1d:8e:47:30:df:76:d9:14:de:2b:2e:da:81:93:a0:
                    c2:ef:89:42:53:38:45:9b:cd:8d:e5:ec:88:c5:64:
                    a5:38:71:0b:e6:f3:84:1f:88:27:5f:31:cb:47:52:
                    55:f9:4c:ef:4c:cf:0a:a5:0f:d9:e2:07:78:fb:9a:
                    42:ef:16:c8:7e:0c:83:1b:ad:f0:ce:15:a4:bf:e7:
                    92:fd:09:50:52:d9:74:77:dc:43:51:4a:4d:9c:59:
                    0c:32:09:24:41:0c:9a:fd:36:41:2c:01:f2:4d:99:
                    80:8b:3d:69:17:77:5d:3d:13:9b:24:6c:0f:b2:be:
                    9d:c8:b1:a5:55:36:3f:44:f1:e5:01:eb:ab:b7:d7:
                    b6:9d:74:32:a4:2a:89:ed:98:1b:84:d1:32:79:e5:
                    3f:4b:99:15:fb:ae:81:2a:a1:3a:49:2a:fb:57:c1:
                    e4:0b:00:ae:71:1e:ce:f6:93:61:06:c9:1b:e4:7f:
                    08:02:44:ca:47:4e:06:72:5d:d9:e9:ca:84:f2:d3:
                    b4:0c:2a:1b:9f:af:d8:db:13:fc:2c:12:15:11:3d:
                    05:99:39:4c:73:95:2c:df:da:b0:74:ac:af:f1:26:
                    d7:4d:b2:00:cc:9d:78:32:31:df:6d:ef:2f:97:33:
                    bd:a9
                Exponent: 65537 (0x10001)
        X509v3 extensions:
            X509v3 Basic Constraints: critical
                CA:FALSE
            X509v3 Subject Key Identifier: 
                0D:F3:05:38:4E:9E:88:E0:E9:A0:32:86:B9:B6:C5:8A:FE:BF:A4:90
            X509v3 Authority Key Identifier: 
                keyid:6F:FF:5C:43:A0:59:AB:E2:5E:2D:7A:16:DA:26:97:DA:20:EB:6D:41
                DirName:/CN=devcert
                serial:E7:03:3C:9C:AF:33:C6:E3

            X509v3 Key Usage: critical
                Digital Signature, Key Encipherment
            X509v3 Extended Key Usage: 
                TLS Web Server Authentication
            X509v3 Subject Alternative Name: 
                DNS:localhost, DNS:*.localhost
    Signature Algorithm: sha256WithRSAEncryption
         03:7b:42:4b:29:df:9f:29:1f:8c:92:fe:c9:ce:dc:8b:26:4c:
         9d:60:64:7c:0b:fa:cc:cd:fa:b0:5f:7e:b1:a2:74:41:e6:4e:
         4b:1b:4e:43:5c:94:4a:75:e7:a1:71:cd:0e:2a:cd:2f:8c:30:
         b4:8b:9f:70:e4:2e:ad:3d:d8:0a:d0:34:23:49:d0:ce:ef:69:
         d6:aa:9c:be:14:e9:63:86:22:d5:57:3f:d2:6a:26:60:5f:a5:
         12:73:57:70:78:79:74:7e:e5:fa:b2:0e:e5:7f:19:31:e5:9e:
         c2:13:1d:2a:bb:e1:9a:71:eb:ec:82:27:e6:67:5d:09:23:3a:
         69:fc:94:bb:1b:12:34:0c:42:9e:66:70:70:bd:dd:2e:5d:e1:
         49:4b:8b:e1:ac:b6:09:03:7b:29:40:64:68:56:71:88:9e:76:
         15:31:2c:c6:81:58:a6:14:9b:f0:90:5e:99:29:e5:20:d8:3b:
         e5:09:16:04:55:27:e1:09:71:4c:04:fc:e9:61:f5:28:2f:14:
         7a:96:3a:1b:8a:79:4d:70:1c:ea:4c:aa:8b:29:c0:01:96:43:
         64:45:9e:5b:f3:6d:c1:f3:53:3e:26:5a:a9:56:1b:96:ba:20:
         4e:b9:a6:1d:1c:61:55:b1:b7:1c:50:f4:23:6b:a7:74:4e:21:
         9e:7e:95:8b
-----BEGIN CERTIFICATE-----
MIIDXjCCAkagAwIBAgIBATANBgkqhkiG9w0BAQsFADASMRAwDgYDVQQDDAdkZXZj
ZXJ0MB4XDTIwMDUwNDE1MjcxN1oXDTIyMDgwNzE1MjcxN1owFDESMBAGA1UEAwwJ
bG9jYWxob3N0MIIBIjANBgkqhkiG9w0BAQEFAAOCAQ8AMIIBCgKCAQEAmwSFAKS6
hnnpVYYZzBQdjkcw33bZFN4rLtqBk6DC74lCUzhFm82N5eyIxWSlOHEL5vOEH4gn
XzHLR1JV+UzvTM8KpQ/Z4gd4+5pC7xbIfgyDG63wzhWkv+eS/QlQUtl0d9xDUUpN
nFkMMgkkQQya/TZBLAHyTZmAiz1pF3ddPRObJGwPsr6dyLGlVTY/RPHlAeurt9e2
nXQypCqJ7ZgbhNEyeeU/S5kV+66BKqE6SSr7V8HkCwCucR7O9pNhBskb5H8IAkTK
R04Gcl3Z6cqE8tO0DCobn6/Y2xP8LBIVET0FmTlMc5Us39qwdKyv8SbXTbIAzJ14
MjHfbe8vlzO9qQIDAQABo4G8MIG5MAwGA1UdEwEB/wQCMAAwHQYDVR0OBBYEFA3z
BThOnojg6aAyhrm2xYr+v6SQMEIGA1UdIwQ7MDmAFG//XEOgWaviXi16Ftoml9og
621BoRakFDASMRAwDgYDVQQDDAdkZXZjZXJ0ggkA5wM8nK8zxuMwDgYDVR0PAQH/
BAQDAgWgMBMGA1UdJQQMMAoGCCsGAQUFBwMBMCEGA1UdEQQaMBiCCWxvY2FsaG9z
dIILKi5sb2NhbGhvc3QwDQYJKoZIhvcNAQELBQADggEBAAN7Qksp358pH4yS/snO
3IsmTJ1gZHwL+szN+rBffrGidEHmTksbTkNclEp156FxzQ4qzS+MMLSLn3DkLq09
2ArQNCNJ0M7vadaqnL4U6WOGItVXP9JqJmBfpRJzV3B4eXR+5fqyDuV/GTHlnsIT
HSq74Zpx6+yCJ+ZnXQkjOmn8lLsbEjQMQp5mcHC93S5d4UlLi+GstgkDeylAZGhW
cYiedhUxLMaBWKYUm/CQXpkp5SDYO+UJFgRVJ+EJcUwE/Olh9SgvFHqWOhuKeU1w
HOpMqospwAGWQ2RFnlvzbcHzUz4mWqlWG5a6IE65ph0cYVWxtxxQ9CNrp3ROIZ5+
lYs=
-----END CERTIFICATE-----
